target datalayout = "e-m:e-p270:32:32-p271:32:32-p272:64:64-i64:64-i128:128-f80:128-n8:16:32:64-S128"
target triple = "x86_64-pc-linux-gnu"

%struct._sccp_user_t = type { i32, ptr, ptr, i32, i8, ptr }
%struct._sccp_ul = type { i32, i8, ptr }

@data_handle = internal global ptr null, align 8
@.str.476 = private unnamed_addr constant [18 x i8] c"Must specify a PC\00", align 1
@.str.477 = private unnamed_addr constant [20 x i8] c"Must specify an SSN\00", align 1

; Function Attrs: null_pointer_is_valid sspstrong uwtable
define internal zeroext i1 @sccp_users_update_cb(ptr noundef %0, ptr noundef %1) #0 {
  %3 = alloca i1, align 1
  %4 = alloca ptr, align 8
  %5 = alloca ptr, align 8
  %6 = alloca ptr, align 8
  %7 = alloca ptr, align 8
  %8 = alloca ptr, align 8
  %9 = alloca i32, align 4
  store ptr %0, ptr %4, align 8
  store ptr %1, ptr %5, align 8
  call void @llvm.lifetime.start.p0(i64 8, ptr %6) #10
  %10 = load ptr, ptr %4, align 8
  store ptr %10, ptr %6, align 8
  call void @llvm.lifetime.start.p0(i64 8, ptr %7) #10
  call void @llvm.lifetime.start.p0(i64 8, ptr %8) #10
  %11 = call ptr @range_empty(ptr noundef null)
  store ptr %11, ptr %8, align 8
  %12 = load ptr, ptr %6, align 8
  %13 = getelementptr inbounds nuw %struct._sccp_user_t, ptr %12, i32 0, i32 1
  %14 = load ptr, ptr %13, align 8
  %15 = load ptr, ptr %8, align 8
  %16 = call zeroext i1 @ranges_are_equal(ptr noundef %14, ptr noundef %15)
  br i1 %16, label %17, label %21

17:                                               ; preds = %2
  %18 = call noalias ptr @g_strdup(ptr noundef @.str.476)
  %19 = load ptr, ptr %5, align 8
  store ptr %18, ptr %19, align 8
  %20 = load ptr, ptr %8, align 8
  call void @wmem_free(ptr noundef null, ptr noundef %20)
  store i1 false, ptr %3, align 1
  store i32 1, ptr %9, align 4
  br label %68

21:                                               ; preds = %2
  %22 = load ptr, ptr %6, align 8
  %23 = getelementptr inbounds nuw %struct._sccp_user_t, ptr %22, i32 0, i32 2
  %24 = load ptr, ptr %23, align 8
  %25 = load ptr, ptr %8, align 8
  %26 = call zeroext i1 @ranges_are_equal(ptr noundef %24, ptr noundef %25)
  br i1 %26, label %27, label %31

27:                                               ; preds = %21
  %28 = call noalias ptr @g_strdup(ptr noundef @.str.477)
  %29 = load ptr, ptr %5, align 8
  store ptr %28, ptr %29, align 8
  %30 = load ptr, ptr %8, align 8
  call void @wmem_free(ptr noundef null, ptr noundef %30)
  store i1 false, ptr %3, align 1
  store i32 1, ptr %9, align 4
  br label %68

31:                                               ; preds = %21
  %32 = load ptr, ptr %8, align 8
  call void @wmem_free(ptr noundef null, ptr noundef %32)
  store ptr @user_list, ptr %7, align 8
  br label %33

33:                                               ; preds = %60, %31
  %34 = load ptr, ptr %7, align 8
  %35 = getelementptr inbounds nuw %struct._sccp_ul, ptr %34, i32 0, i32 2
  %36 = load ptr, ptr %35, align 8
  %37 = icmp ne ptr %36, null
  br i1 %37, label %38, label %63

38:                                               ; preds = %33
  %39 = load ptr, ptr %7, align 8
  %40 = getelementptr inbounds nuw %struct._sccp_ul, ptr %39, i32 0, i32 0
  %41 = load i32, ptr %40, align 8
  %42 = load ptr, ptr %6, align 8
  %43 = getelementptr inbounds nuw %struct._sccp_user_t, ptr %42, i32 0, i32 3
  %44 = load i32, ptr %43, align 8
  %45 = icmp eq i32 %41, %44
  br i1 %45, label %46, label %59

46:                                               ; preds = %38
  %47 = load ptr, ptr %7, align 8
  %48 = getelementptr inbounds nuw %struct._sccp_ul, ptr %47, i32 0, i32 1
  %49 = load i8, ptr %48, align 4, !range !6, !noundef !7
  %50 = trunc i8 %49 to i1
  %51 = load ptr, ptr %6, align 8
  %52 = getelementptr inbounds nuw %struct._sccp_user_t, ptr %51, i32 0, i32 4
  %53 = zext i1 %50 to i8
  store i8 %53, ptr %52, align 4
  %54 = load ptr, ptr %7, align 8
  %55 = getelementptr inbounds nuw %struct._sccp_ul, ptr %54, i32 0, i32 2
  %56 = load ptr, ptr %55, align 8
  %57 = load ptr, ptr %6, align 8
  %58 = getelementptr inbounds nuw %struct._sccp_user_t, ptr %57, i32 0, i32 5
  store ptr %56, ptr %58, align 8
  store i1 true, ptr %3, align 1
  store i32 1, ptr %9, align 4
  br label %68

59:                                               ; preds = %38
  br label %60

60:                                               ; preds = %59
  %61 = load ptr, ptr %7, align 8
  %62 = getelementptr %struct._sccp_ul, ptr %61, i32 1
  store ptr %62, ptr %7, align 8
  br label %33, !llvm.loop !13

63:                                               ; preds = %33
  %64 = load ptr, ptr %6, align 8
  %65 = getelementptr inbounds nuw %struct._sccp_user_t, ptr %64, i32 0, i32 4
  store i8 0, ptr %65, align 4
  %66 = load ptr, ptr %6, align 8
  %67 = getelementptr inbounds nuw %struct._sccp_user_t, ptr %66, i32 0, i32 5
  store ptr @data_handle, ptr %67, align 8
  store i1 true, ptr %3, align 1
  store i32 1, ptr %9, align 4
  br label %68

68:                                               ; preds = %63, %46, %27, %17
  call void @llvm.lifetime.end.p0(i64 8, ptr %8) #10
  call void @llvm.lifetime.end.p0(i64 8, ptr %7) #10
  call void @llvm.lifetime.end.p0(i64 8, ptr %6) #10
  %69 = load i1, ptr %3, align 1
  ret i1 %69
}