; Function Attrs: null_pointer_is_valid sspstrong uwtable
define internal noundef zeroext i1 @sccp_users_update_cb(ptr noundef captures(none) %0, ptr noundef writeonly captures(none) %1) #0 {
  %3 = tail call ptr @range_empty(ptr noundef null)
  %4 = getelementptr inbounds nuw i8, ptr %0, i64 8
  %5 = load ptr, ptr %4, align 8
  %6 = tail call zeroext i1 @ranges_are_equal(ptr noundef %5, ptr noundef %3)
  br i1 %6, label %7, label %9

7:                                                ; preds = %2
  %8 = tail call noalias ptr @g_strdup(ptr noundef nonnull @.str.476)
  store ptr %8, ptr %1, align 8
  tail call void @wmem_free(ptr noundef null, ptr noundef %3)
  br label %32

9:                                                ; preds = %2
  %10 = getelementptr inbounds nuw i8, ptr %0, i64 16
  %11 = load ptr, ptr %10, align 8
  %12 = tail call zeroext i1 @ranges_are_equal(ptr noundef %11, ptr noundef %3)
  br i1 %12, label %13, label %15

13:                                               ; preds = %9
  %14 = tail call noalias ptr @g_strdup(ptr noundef nonnull @.str.477)
  store ptr %14, ptr %1, align 8
  tail call void @wmem_free(ptr noundef null, ptr noundef %3)
  br label %32

15:                                               ; preds = %9
  tail call void @wmem_free(ptr noundef null, ptr noundef %3)
  %16 = getelementptr inbounds nuw i8, ptr %0, i64 24
  %17 = load i32, ptr %16, align 8
  %18 = icmp eq i32 %17, 0
  br i1 %18, label %._crit_edge, label %.lr.ph

19:                                               ; preds = %.lr.ph
  %20 = getelementptr i8, ptr %.0212431, i64 16
  %21 = load i32, ptr %20, align 8
  %22 = icmp eq i32 %21, %17
  br i1 %22, label %._crit_edge, label %.lr.ph, !llvm.loop !13

._crit_edge:                                      ; preds = %19, %15
  %.lcssa = phi ptr [ @data_handle, %15 ], [ %28, %19 ]
  %.02124.lcssa = phi ptr [ @user_list, %15 ], [ %20, %19 ]
  %23 = getelementptr inbounds nuw i8, ptr %.02124.lcssa, i64 4
  %24 = load i8, ptr %23, align 4, !range !6, !noundef !7
  %25 = getelementptr inbounds nuw i8, ptr %0, i64 28
  store i8 %24, ptr %25, align 4
  %26 = getelementptr inbounds nuw i8, ptr %0, i64 32
  store ptr %.lcssa, ptr %26, align 8
  br label %32

.lr.ph:                                           ; preds = %15, %19
  %.0212431 = phi ptr [ %20, %19 ], [ @user_list, %15 ]
  %27 = getelementptr i8, ptr %.0212431, i64 24
  %28 = load ptr, ptr %27, align 8
  %.not = icmp eq ptr %28, null
  br i1 %.not, label %29, label %19, !llvm.loop !13

29:                                               ; preds = %.lr.ph
  %30 = getelementptr inbounds nuw i8, ptr %0, i64 28
  store i8 0, ptr %30, align 4
  %31 = getelementptr inbounds nuw i8, ptr %0, i64 32
  store ptr @data_handle, ptr %31, align 8
  br label %32

32:                                               ; preds = %29, %._crit_edge, %13, %7
  %.0 = phi i1 [ false, %7 ], [ false, %13 ], [ true, %._crit_edge ], [ true, %29 ]
  ret i1 %.0
}